; Function Attrs: nounwind uwtable
define hidden noundef i32 @uv__udp_recv_stop(ptr noundef %0) local_unnamed_addr #0 {
  %2 = getelementptr inbounds nuw i8, ptr %0, i64 8
  %3 = load ptr, ptr %2, align 8
  %4 = getelementptr inbounds nuw i8, ptr %0, i64 128
  tail call void @uv__io_stop(ptr noundef %3, ptr noundef nonnull %4, i32 noundef 1) #10
  %5 = tail call i32 @uv__io_active(ptr noundef nonnull %4, i32 noundef 4) #10
  %.not = icmp eq i32 %5, 0
  br i1 %.not, label %6, label %19

6:                                                ; preds = %1
  %7 = getelementptr inbounds nuw i8, ptr %0, i64 88
  %8 = load i32, ptr %7, align 8
  %9 = and i32 %8, 4
  %10 = icmp eq i32 %9, 0
  br i1 %10, label %19, label %11

11:                                               ; preds = %6
  %12 = and i32 %8, -5
  store i32 %12, ptr %7, align 8
  %13 = and i32 %8, 8
  %.not9 = icmp eq i32 %13, 0
  br i1 %.not9, label %19, label %14

14:                                               ; preds = %11
  %15 = load ptr, ptr %2, align 8
  %16 = getelementptr inbounds nuw i8, ptr %15, i64 8
  %17 = load i32, ptr %16, align 8
  %18 = add i32 %17, -1
  store i32 %18, ptr %16, align 8
  br label %19

19:                                               ; preds = %6, %14, %11, %1
  %20 = getelementptr inbounds nuw i8, ptr %0, i64 112
  tail call void @llvm.memset.p0.i64(ptr noundef nonnull align 8 dereferenceable(16) %20, i8 0, i64 16, i1 false)
  ret i32 0
}